; Function Attrs: nounwind uwtable
define hidden noalias ptr @mi_heap_realpath(ptr noundef %0, ptr noundef readonly captures(none) %1, ptr noundef %2) local_unnamed_addr #3 {
  %.not = icmp eq ptr %2, null
  br i1 %.not, label %6, label %4

4:                                                ; preds = %3
  %5 = tail call ptr @realpath(ptr noundef %1, ptr noundef nonnull %2) #19
  br label %30

6:                                                ; preds = %3
  %7 = tail call ptr @realpath(ptr noundef %1, ptr noundef null) #19
  %8 = icmp eq ptr %7, null
  br i1 %8, label %30, label %9

9:                                                ; preds = %6
  %10 = tail call i64 @_mi_strlen(ptr noundef nonnull %7) #19
  %11 = add i64 %10, 1
  %12 = icmp ult i64 %11, 1025
  br i1 %12, label %13, label %mi_heap_malloc.exit.i, !prof !8

13:                                               ; preds = %9
  %14 = add nsw i64 %10, 8
  %15 = lshr i64 %14, 3
  %16 = getelementptr inbounds nuw i8, ptr %0, i64 232
  %17 = getelementptr inbounds nuw [129 x ptr], ptr %16, i64 0, i64 %15
  %18 = load ptr, ptr %17, align 8, !tbaa !9
  %19 = getelementptr inbounds nuw i8, ptr %18, i64 16
  %20 = load ptr, ptr %19, align 8, !tbaa !11
  %21 = icmp eq ptr %20, null
  br i1 %21, label %mi_heap_malloc.exit.i, label %mi_heap_malloc.exit.thread.i, !prof !18

mi_heap_malloc.exit.thread.i:                     ; preds = %13
  %.val.i.i.i.i.i.i = load i64, ptr %20, align 8, !tbaa !19
  %22 = inttoptr i64 %.val.i.i.i.i.i.i to ptr
  store ptr %22, ptr %19, align 8, !tbaa !11
  %23 = getelementptr inbounds nuw i8, ptr %18, i64 32
  %24 = load i16, ptr %23, align 8, !tbaa !21
  %25 = add i16 %24, 1
  store i16 %25, ptr %23, align 8, !tbaa !21
  br label %28

mi_heap_malloc.exit.i:                            ; preds = %13, %9
  %26 = tail call noalias ptr @_mi_malloc_generic(ptr noundef %0, i64 noundef %11, i1 noundef zeroext false, i64 noundef 0) #19
  %27 = icmp eq ptr %26, null
  br i1 %27, label %mi_heap_strdup.exit, label %28

28:                                               ; preds = %mi_heap_malloc.exit.i, %mi_heap_malloc.exit.thread.i
  %.0.i.i.i14.i = phi ptr [ %20, %mi_heap_malloc.exit.thread.i ], [ %26, %mi_heap_malloc.exit.i ]
  tail call void @llvm.memcpy.p0.p0.i64(ptr nonnull align 1 %.0.i.i.i14.i, ptr nonnull readonly align 1 %7, i64 %10, i1 false)
  %29 = getelementptr inbounds nuw i8, ptr %.0.i.i.i14.i, i64 %10
  store i8 0, ptr %29, align 1, !tbaa !24
  br label %mi_heap_strdup.exit

mi_heap_strdup.exit:                              ; preds = %mi_heap_malloc.exit.i, %28
  %.0.i = phi ptr [ %.0.i.i.i14.i, %28 ], [ null, %mi_heap_malloc.exit.i ]
  tail call void @mi_cfree(ptr noundef nonnull %7) #19
  br label %30

30:                                               ; preds = %mi_heap_strdup.exit, %6, %4
  %.0 = phi ptr [ %5, %4 ], [ %.0.i, %mi_heap_strdup.exit ], [ null, %6 ]
  ret ptr %.0
}